; Function Attrs: mustprogress nofree norecurse nosync nounwind willreturn memory(readwrite, inaccessiblemem: none) uwtable
define internal noundef i32 @IDASpbcgInit(ptr noundef initializes((1648, 1652)) %0) #3 {
  %2 = getelementptr inbounds nuw i8, ptr %0, i64 1632
  %3 = load ptr, ptr %2, align 8, !tbaa !42
  %4 = getelementptr inbounds nuw i8, ptr %3, i64 192
  %5 = load ptr, ptr %4, align 8, !tbaa !41
  %6 = getelementptr inbounds nuw i8, ptr %3, i64 48
  %7 = getelementptr inbounds nuw i8, ptr %3, i64 216
  tail call void @llvm.memset.p0.i64(ptr noundef nonnull align 8 dereferenceable(48) %6, i8 0, i64 48, i1 false)
  %8 = load ptr, ptr %7, align 8, !tbaa !43
  %.not = icmp eq ptr %8, null
  br i1 %.not, label %14, label %9

9:                                                ; preds = %1
  %10 = getelementptr inbounds nuw i8, ptr %3, i64 208
  %11 = load ptr, ptr %10, align 8, !tbaa !44
  %12 = icmp ne ptr %11, null
  %13 = zext i1 %12 to i32
  br label %14

14:                                               ; preds = %9, %1
  %15 = phi i32 [ 0, %1 ], [ %13, %9 ]
  %16 = getelementptr inbounds nuw i8, ptr %0, i64 1648
  store i32 %15, ptr %16, align 8, !tbaa !36
  %17 = getelementptr inbounds nuw i8, ptr %3, i64 240
  %18 = load i32, ptr %17, align 8, !tbaa !30
  %.not20 = icmp eq i32 %18, 0
  br i1 %.not20, label %21, label %19

19:                                               ; preds = %14
  %20 = getelementptr inbounds nuw i8, ptr %3, i64 248
  store ptr @IDASpilsDQJtimes, ptr %20, align 8, !tbaa !45
  br label %24

21:                                               ; preds = %14
  %22 = getelementptr inbounds nuw i8, ptr %0, i64 16
  %23 = load ptr, ptr %22, align 8, !tbaa !31
  br label %24

24:                                               ; preds = %21, %19
  %.sink = phi ptr [ %23, %21 ], [ %0, %19 ]
  %25 = getelementptr inbounds nuw i8, ptr %3, i64 256
  store ptr %.sink, ptr %25, align 8, !tbaa !46
  %26 = getelementptr inbounds nuw i8, ptr %3, i64 16
  %27 = load i32, ptr %26, align 8, !tbaa !29
  store i32 %27, ptr %5, align 8, !tbaa !47
  %28 = getelementptr inbounds nuw i8, ptr %3, i64 200
  store i64 0, ptr %28, align 8, !tbaa !35
  ret i32 0
}